target datalayout = "e-m:e-p270:32:32-p271:32:32-p272:64:64-i64:64-i128:128-f80:128-n8:16:32:64-S128"
target triple = "x86_64-pc-linux-gnu"

%"class.mitsuba::filesystem::path" = type <{ %"class.std::__1::vector.2", i8, [7 x i8] }>
%"class.std::__1::vector.2" = type { ptr, ptr, %"class.std::__1::__compressed_pair.3" }
%"class.std::__1::__compressed_pair.3" = type { %"struct.std::__1::__compressed_pair_elem.4" }
%"struct.std::__1::__compressed_pair_elem.4" = type { ptr }
%"class.mitsuba::FileResolver" = type { %"class.mitsuba::Object.base", %"class.std::__1::vector" }
%"class.mitsuba::Object.base" = type <{ ptr, %"struct.std::__1::atomic" }>
%"struct.std::__1::atomic" = type { %"struct.std::__1::__atomic_base" }
%"struct.std::__1::__atomic_base" = type { %"struct.std::__1::__atomic_base.0" }
%"struct.std::__1::__atomic_base.0" = type { %"struct.std::__1::__cxx_atomic_impl" }
%"struct.std::__1::__cxx_atomic_impl" = type { %"struct.std::__1::__cxx_atomic_base_impl" }
%"struct.std::__1::__cxx_atomic_base_impl" = type { i32 }
%"class.std::__1::vector" = type { ptr, ptr, %"class.std::__1::__compressed_pair" }
%"class.std::__1::__compressed_pair" = type { %"struct.std::__1::__compressed_pair_elem" }
%"struct.std::__1::__compressed_pair_elem" = type { ptr }
%"class.std::__1::__wrap_iter.9" = type { ptr }
%"struct.std::__1::__identity" = type { i8 }

; Function Attrs: mustprogress nounwind uwtable
define linkonce_odr hidden noundef ptr @_ZNSt3__112__to_addressB8ne190000IKN7mitsuba10filesystem4pathEEEPT_S6_(ptr noundef %0) #1 comdat {
  %2 = alloca ptr, align 8
  store ptr %0, ptr %2, align 8
  %3 = load ptr, ptr %2, align 8
  ret ptr %3
}

; Function Attrs: mustprogress nounwind uwtable
define linkonce_odr hidden noundef ptr @_ZNSt3__114pointer_traitsINS_11__wrap_iterIPKN7mitsuba10filesystem4pathEEEE10to_addressB8ne190000ES7_(ptr %0) #1 comdat align 2 {
  %2 = alloca %"class.std::__1::__wrap_iter.9", align 8
  %3 = getelementptr inbounds %"class.std::__1::__wrap_iter.9", ptr %2, i32 0, i32 0
  store ptr %0, ptr %3, align 8
  %4 = call noundef ptr @_ZNKSt3__111__wrap_iterIPKN7mitsuba10filesystem4pathEE4baseB8ne190000Ev(ptr noundef nonnull align 8 dereferenceable(8) %2) #13
  %5 = call noundef ptr @_ZNSt3__112__to_addressB8ne190000IKN7mitsuba10filesystem4pathEEEPT_S6_(ptr noundef %4) #13
  ret ptr %5
}

; Function Attrs: mustprogress nounwind uwtable
define linkonce_odr hidden noundef nonnull align 8 dereferenceable(8) ptr @_ZNSt3__111__wrap_iterIPKN7mitsuba10filesystem4pathEEpLB8ne190000El(ptr noundef nonnull align 8 dereferenceable(8) %0, i64 noundef %1) #1 comdat align 2 {
  %3 = alloca ptr, align 8
  %4 = alloca i64, align 8
  store ptr %0, ptr %3, align 8
  store i64 %1, ptr %4, align 8
  %5 = load ptr, ptr %3, align 8
  %6 = load i64, ptr %4, align 8
  %7 = getelementptr inbounds %"class.std::__1::__wrap_iter.9", ptr %5, i32 0, i32 0
  %8 = load ptr, ptr %7, align 8
  %9 = getelementptr inbounds %"class.mitsuba::filesystem::path", ptr %8, i64 %6
  store ptr %9, ptr %7, align 8
  ret ptr %5
}

; Function Attrs: mustprogress nounwind uwtable
define linkonce_odr hidden noundef ptr @_ZNSt3__119__to_address_helperINS_11__wrap_iterIPKN7mitsuba10filesystem4pathEEEvE6__callB8ne190000ERKS7_(ptr noundef nonnull align 8 dereferenceable(8) %0) #1 comdat align 2 {
  %2 = alloca ptr, align 8
  %3 = alloca %"class.std::__1::__wrap_iter.9", align 8
  store ptr %0, ptr %2, align 8
  %4 = load ptr, ptr %2, align 8
  call void @llvm.memcpy.p0.p0.i64(ptr align 8 %3, ptr align 8 %4, i64 8, i1 false)
  %5 = getelementptr inbounds %"class.std::__1::__wrap_iter.9", ptr %3, i32 0, i32 0
  %6 = load ptr, ptr %5, align 8
  %7 = call noundef ptr @_ZNSt3__114pointer_traitsINS_11__wrap_iterIPKN7mitsuba10filesystem4pathEEEE10to_addressB8ne190000ES7_(ptr %6) #13
  ret ptr %7
}

; Function Attrs: mustprogress nounwind uwtable
define linkonce_odr hidden ptr @_ZNKSt3__111__wrap_iterIPKN7mitsuba10filesystem4pathEEplB8ne190000El(ptr noundef nonnull align 8 dereferenceable(8) %0, i64 noundef %1) #1 comdat align 2 {
  %3 = alloca %"class.std::__1::__wrap_iter.9", align 8
  %4 = alloca ptr, align 8
  %5 = alloca i64, align 8
  store ptr %0, ptr %4, align 8
  store i64 %1, ptr %5, align 8
  %6 = load ptr, ptr %4, align 8
  call void @llvm.memcpy.p0.p0.i64(ptr align 8 %3, ptr align 8 %6, i64 8, i1 false)
  %7 = load i64, ptr %5, align 8
  %8 = call noundef nonnull align 8 dereferenceable(8) ptr @_ZNSt3__111__wrap_iterIPKN7mitsuba10filesystem4pathEEpLB8ne190000El(ptr noundef nonnull align 8 dereferenceable(8) %3, i64 noundef %7) #13
  %9 = getelementptr inbounds %"class.std::__1::__wrap_iter.9", ptr %3, i32 0, i32 0
  %10 = load ptr, ptr %9, align 8
  ret ptr %10
}

; Function Attrs: mustprogress nounwind uwtable
define linkonce_odr hidden noundef ptr @_ZNSt3__112__to_addressB8ne190000INS_11__wrap_iterIPKN7mitsuba10filesystem4pathEEETnNS_9enable_ifIXsr4_AndINS_8is_classIT_EENS_15_IsFancyPointerISA_EEEE5valueEiE4typeELi0EEEu7__decayIDTclsr19__to_address_helperISA_EE6__callclsr3stdE7declvalIRKSA_EEEEESH_(ptr noundef nonnull align 8 dereferenceable(8) %0) #1 comdat {
  %2 = alloca ptr, align 8
  store ptr %0, ptr %2, align 8
  %3 = load ptr, ptr %2, align 8
  %4 = call noundef ptr @_ZNSt3__119__to_address_helperINS_11__wrap_iterIPKN7mitsuba10filesystem4pathEEEvE6__callB8ne190000ERKS7_(ptr noundef nonnull align 8 dereferenceable(8) %3) #13
  ret ptr %4
}

; Function Attrs: mustprogress nounwind uwtable
define linkonce_odr hidden noundef ptr @_ZNKSt3__111__wrap_iterIPKN7mitsuba10filesystem4pathEE4baseB8ne190000Ev(ptr noundef nonnull align 8 dereferenceable(8) %0) #1 comdat align 2 {
  %2 = alloca ptr, align 8
  store ptr %0, ptr %2, align 8
  %3 = load ptr, ptr %2, align 8
  %4 = getelementptr inbounds %"class.std::__1::__wrap_iter.9", ptr %3, i32 0, i32 0
  %5 = load ptr, ptr %4, align 8
  ret ptr %5
}

; Function Attrs: noreturn nounwind uwtable
define linkonce_odr hidden void @__clang_call_terminate(ptr noundef %0) #7 comdat {
  %2 = call ptr @__cxa_begin_catch(ptr %0) #13
  call void @_ZSt9terminatev() #14
  unreachable
}

; Function Attrs: mustprogress nounwind uwtable
define linkonce_odr hidden ptr @_ZNSt3__118__unwrap_iter_implINS_11__wrap_iterIPKN7mitsuba10filesystem4pathEEELb1EE8__rewrapB8ne190000ES7_S6_(ptr %0, ptr noundef %1) #1 comdat align 2 {
  %3 = alloca %"class.std::__1::__wrap_iter.9", align 8
  %4 = alloca %"class.std::__1::__wrap_iter.9", align 8
  %5 = alloca ptr, align 8
  %6 = getelementptr inbounds %"class.std::__1::__wrap_iter.9", ptr %4, i32 0, i32 0
  store ptr %0, ptr %6, align 8
  store ptr %1, ptr %5, align 8
  %7 = load ptr, ptr %5, align 8
  %8 = call noundef ptr @_ZNSt3__112__to_addressB8ne190000INS_11__wrap_iterIPKN7mitsuba10filesystem4pathEEETnNS_9enable_ifIXsr4_AndINS_8is_classIT_EENS_15_IsFancyPointerISA_EEEE5valueEiE4typeELi0EEEu7__decayIDTclsr19__to_address_helperISA_EE6__callclsr3stdE7declvalIRKSA_EEEEESH_(ptr noundef nonnull align 8 dereferenceable(8) %4) #13
  %9 = ptrtoint ptr %7 to i64
  %10 = ptrtoint ptr %8 to i64
  %11 = sub i64 %9, %10
  %12 = sdiv exact i64 %11, 32
  %13 = call ptr @_ZNKSt3__111__wrap_iterIPKN7mitsuba10filesystem4pathEEplB8ne190000El(ptr noundef nonnull align 8 dereferenceable(8) %4, i64 noundef %12) #13
  %14 = getelementptr inbounds %"class.std::__1::__wrap_iter.9", ptr %3, i32 0, i32 0
  store ptr %13, ptr %14, align 8
  %15 = getelementptr inbounds %"class.std::__1::__wrap_iter.9", ptr %3, i32 0, i32 0
  %16 = load ptr, ptr %15, align 8
  ret ptr %16
}

; Function Attrs: mustprogress nounwind uwtable
define linkonce_odr hidden noundef ptr @_ZNSt3__118__unwrap_iter_implINS_11__wrap_iterIPKN7mitsuba10filesystem4pathEEELb1EE8__unwrapB8ne190000ES7_(ptr %0) #1 comdat align 2 {
  %2 = alloca %"class.std::__1::__wrap_iter.9", align 8
  %3 = getelementptr inbounds %"class.std::__1::__wrap_iter.9", ptr %2, i32 0, i32 0
  store ptr %0, ptr %3, align 8
  %4 = call noundef ptr @_ZNSt3__112__to_addressB8ne190000INS_11__wrap_iterIPKN7mitsuba10filesystem4pathEEETnNS_9enable_ifIXsr4_AndINS_8is_classIT_EENS_15_IsFancyPointerISA_EEEE5valueEiE4typeELi0EEEu7__decayIDTclsr19__to_address_helperISA_EE6__callclsr3stdE7declvalIRKSA_EEEEESH_(ptr noundef nonnull align 8 dereferenceable(8) %2) #13
  ret ptr %4
}

; Function Attrs: mustprogress nounwind uwtable
define linkonce_odr hidden void @_ZNSt3__111__wrap_iterIPKN7mitsuba10filesystem4pathEEC2B8ne190000ES5_(ptr noundef nonnull align 8 dereferenceable(8) %0, ptr noundef %1) unnamed_addr #1 comdat align 2 {
  %3 = alloca ptr, align 8
  %4 = alloca ptr, align 8
  store ptr %0, ptr %3, align 8
  store ptr %1, ptr %4, align 8
  %5 = load ptr, ptr %3, align 8
  %6 = getelementptr inbounds %"class.std::__1::__wrap_iter.9", ptr %5, i32 0, i32 0
  %7 = load ptr, ptr %4, align 8
  store ptr %7, ptr %6, align 8
  ret void
}

; Function Attrs: mustprogress nounwind uwtable
define linkonce_odr hidden noundef zeroext i1 @_ZNSt3__1eqB8ne190000IPKN7mitsuba10filesystem4pathEEEbRKNS_11__wrap_iterIT_EESA_(ptr noundef nonnull align 8 dereferenceable(8) %0, ptr noundef nonnull align 8 dereferenceable(8) %1) #1 comdat {
  %3 = alloca ptr, align 8
  %4 = alloca ptr, align 8
  store ptr %0, ptr %3, align 8
  store ptr %1, ptr %4, align 8
  %5 = load ptr, ptr %3, align 8
  %6 = call noundef ptr @_ZNKSt3__111__wrap_iterIPKN7mitsuba10filesystem4pathEE4baseB8ne190000Ev(ptr noundef nonnull align 8 dereferenceable(8) %5) #13
  %7 = load ptr, ptr %4, align 8
  %8 = call noundef ptr @_ZNKSt3__111__wrap_iterIPKN7mitsuba10filesystem4pathEE4baseB8ne190000Ev(ptr noundef nonnull align 8 dereferenceable(8) %7) #13
  %9 = icmp eq ptr %6, %8
  ret i1 %9
}

; Function Attrs: mustprogress nounwind uwtable
define linkonce_odr hidden ptr @_ZNSt3__113__rewrap_iterB8ne190000INS_11__wrap_iterIPKN7mitsuba10filesystem4pathEEES6_NS_18__unwrap_iter_implIS7_Lb1EEEEET_SA_T0_(ptr %0, ptr noundef %1) #1 comdat personality ptr @__gxx_personality_v0 {
  %3 = alloca %"class.std::__1::__wrap_iter.9", align 8
  %4 = alloca %"class.std::__1::__wrap_iter.9", align 8
  %5 = alloca ptr, align 8
  %6 = alloca %"class.std::__1::__wrap_iter.9", align 8
  %7 = getelementptr inbounds %"class.std::__1::__wrap_iter.9", ptr %4, i32 0, i32 0
  store ptr %0, ptr %7, align 8
  store ptr %1, ptr %5, align 8
  call void @llvm.memcpy.p0.p0.i64(ptr align 8 %6, ptr align 8 %4, i64 8, i1 false)
  %8 = load ptr, ptr %5, align 8
  %9 = getelementptr inbounds %"class.std::__1::__wrap_iter.9", ptr %6, i32 0, i32 0
  %10 = load ptr, ptr %9, align 8
  %11 = invoke ptr @_ZNSt3__118__unwrap_iter_implINS_11__wrap_iterIPKN7mitsuba10filesystem4pathEEELb1EE8__rewrapB8ne190000ES7_S6_(ptr %10, ptr noundef %8)
          to label %12 unwind label %16

12:                                               ; preds = %2
  %13 = getelementptr inbounds %"class.std::__1::__wrap_iter.9", ptr %3, i32 0, i32 0
  store ptr %11, ptr %13, align 8
  %14 = getelementptr inbounds %"class.std::__1::__wrap_iter.9", ptr %3, i32 0, i32 0
  %15 = load ptr, ptr %14, align 8
  ret ptr %15

16:                                               ; preds = %2
  %17 = landingpad { ptr, i32 }
          catch ptr null
  %18 = extractvalue { ptr, i32 } %17, 0
  call void @__clang_call_terminate(ptr %18) #14
  unreachable
}

; Function Attrs: mustprogress nounwind uwtable
define linkonce_odr hidden noundef ptr @_ZNSt3__113__unwrap_iterB8ne190000INS_11__wrap_iterIPKN7mitsuba10filesystem4pathEEENS_18__unwrap_iter_implIS7_Lb1EEETnNS_9enable_ifIXsr21is_copy_constructibleIT_EE5valueEiE4typeELi0EEEDTclsrT0_8__unwrapclsr3stdE7declvalISB_EEEESB_(ptr %0) #1 comdat {
  %2 = alloca %"class.std::__1::__wrap_iter.9", align 8
  %3 = alloca %"class.std::__1::__wrap_iter.9", align 8
  %4 = getelementptr inbounds %"class.std::__1::__wrap_iter.9", ptr %2, i32 0, i32 0
  store ptr %0, ptr %4, align 8
  call void @llvm.memcpy.p0.p0.i64(ptr align 8 %3, ptr align 8 %2, i64 8, i1 false)
  %5 = getelementptr inbounds %"class.std::__1::__wrap_iter.9", ptr %3, i32 0, i32 0
  %6 = load ptr, ptr %5, align 8
  %7 = call noundef ptr @_ZNSt3__118__unwrap_iter_implINS_11__wrap_iterIPKN7mitsuba10filesystem4pathEEELb1EE8__unwrapB8ne190000ES7_(ptr %6) #13
  ret ptr %7
}

; Function Attrs: mustprogress nounwind uwtable
define linkonce_odr hidden ptr @_ZNKSt3__16vectorIN7mitsuba10filesystem4pathENS_9allocatorIS3_EEE11__make_iterB8ne190000EPKS3_(ptr noundef nonnull align 8 dereferenceable(24) %0, ptr noundef %1) #1 comdat align 2 {
  %3 = alloca %"class.std::__1::__wrap_iter.9", align 8
  %4 = alloca ptr, align 8
  %5 = alloca ptr, align 8
  store ptr %0, ptr %4, align 8
  store ptr %1, ptr %5, align 8
  %6 = load ptr, ptr %5, align 8
  call void @_ZNSt3__111__wrap_iterIPKN7mitsuba10filesystem4pathEEC2B8ne190000ES5_(ptr noundef nonnull align 8 dereferenceable(8) %3, ptr noundef %6) #13
  %7 = getelementptr inbounds %"class.std::__1::__wrap_iter.9", ptr %3, i32 0, i32 0
  %8 = load ptr, ptr %7, align 8
  ret ptr %8
}

; Function Attrs: mustprogress nounwind uwtable
define linkonce_odr hidden noundef zeroext i1 @_ZNSt3__1neB8ne190000IPKN7mitsuba10filesystem4pathEEEbRKNS_11__wrap_iterIT_EESA_(ptr noundef nonnull align 8 dereferenceable(8) %0, ptr noundef nonnull align 8 dereferenceable(8) %1) #1 comdat {
  %3 = alloca ptr, align 8
  %4 = alloca ptr, align 8
  store ptr %0, ptr %3, align 8
  store ptr %1, ptr %4, align 8
  %5 = load ptr, ptr %3, align 8
  %6 = load ptr, ptr %4, align 8
  %7 = call noundef zeroext i1 @_ZNSt3__1eqB8ne190000IPKN7mitsuba10filesystem4pathEEEbRKNS_11__wrap_iterIT_EESA_(ptr noundef nonnull align 8 dereferenceable(8) %5, ptr noundef nonnull align 8 dereferenceable(8) %6) #13
  %8 = xor i1 %7, true
  ret i1 %8
}

; Function Attrs: mustprogress uwtable
define linkonce_odr hidden ptr @_ZNSt3__14findB8ne190000INS_11__wrap_iterIPKN7mitsuba10filesystem4pathEEES4_EET_S8_S8_RKT0_(ptr %0, ptr %1, ptr noundef nonnull align 8 dereferenceable(25) %2) #0 comdat {
  %4 = alloca %"class.std::__1::__wrap_iter.9", align 8
  %5 = alloca %"class.std::__1::__wrap_iter.9", align 8
  %6 = alloca %"class.std::__1::__wrap_iter.9", align 8
  %7 = alloca ptr, align 8
  %8 = alloca %"struct.std::__1::__identity", align 1
  %9 = alloca %"class.std::__1::__wrap_iter.9", align 8
  %10 = alloca %"class.std::__1::__wrap_iter.9", align 8
  %11 = alloca %"class.std::__1::__wrap_iter.9", align 8
  %12 = getelementptr inbounds %"class.std::__1::__wrap_iter.9", ptr %5, i32 0, i32 0
  store ptr %0, ptr %12, align 8
  %13 = getelementptr inbounds %"class.std::__1::__wrap_iter.9", ptr %6, i32 0, i32 0
  store ptr %1, ptr %13, align 8
  store ptr %2, ptr %7, align 8
  call void @llvm.memcpy.p0.p0.i64(ptr align 8 %9, ptr align 8 %5, i64 8, i1 false)
  call void @llvm.memcpy.p0.p0.i64(ptr align 8 %10, ptr align 8 %5, i64 8, i1 false)
  %14 = getelementptr inbounds %"class.std::__1::__wrap_iter.9", ptr %10, i32 0, i32 0
  %15 = load ptr, ptr %14, align 8
  %16 = call noundef ptr @_ZNSt3__113__unwrap_iterB8ne190000INS_11__wrap_iterIPKN7mitsuba10filesystem4pathEEENS_18__unwrap_iter_implIS7_Lb1EEETnNS_9enable_ifIXsr21is_copy_constructibleIT_EE5valueEiE4typeELi0EEEDTclsrT0_8__unwrapclsr3stdE7declvalISB_EEEESB_(ptr %15) #13
  call void @llvm.memcpy.p0.p0.i64(ptr align 8 %11, ptr align 8 %6, i64 8, i1 false)
  %17 = getelementptr inbounds %"class.std::__1::__wrap_iter.9", ptr %11, i32 0, i32 0
  %18 = load ptr, ptr %17, align 8
  %19 = call noundef ptr @_ZNSt3__113__unwrap_iterB8ne190000INS_11__wrap_iterIPKN7mitsuba10filesystem4pathEEENS_18__unwrap_iter_implIS7_Lb1EEETnNS_9enable_ifIXsr21is_copy_constructibleIT_EE5valueEiE4typeELi0EEEDTclsrT0_8__unwrapclsr3stdE7declvalISB_EEEESB_(ptr %18) #13
  %20 = load ptr, ptr %7, align 8
  %21 = call noundef ptr @_ZNSt3__111__find_implB8ne190000IPKN7mitsuba10filesystem4pathES5_S3_NS_10__identityEEET_S7_T0_RKT1_RT2_(ptr noundef %16, ptr noundef %19, ptr noundef nonnull align 8 dereferenceable(25) %20, ptr noundef nonnull align 1 dereferenceable(1) %8)
  %22 = getelementptr inbounds %"class.std::__1::__wrap_iter.9", ptr %9, i32 0, i32 0
  %23 = load ptr, ptr %22, align 8
  %24 = call ptr @_ZNSt3__113__rewrap_iterB8ne190000INS_11__wrap_iterIPKN7mitsuba10filesystem4pathEEES6_NS_18__unwrap_iter_implIS7_Lb1EEEEET_SA_T0_(ptr %23, ptr noundef %21) #13
  %25 = getelementptr inbounds %"class.std::__1::__wrap_iter.9", ptr %4, i32 0, i32 0
  store ptr %24, ptr %25, align 8
  %26 = getelementptr inbounds %"class.std::__1::__wrap_iter.9", ptr %4, i32 0, i32 0
  %27 = load ptr, ptr %26, align 8
  ret ptr %27
}

; Function Attrs: mustprogress nounwind uwtable
define linkonce_odr hidden ptr @_ZNKSt3__16vectorIN7mitsuba10filesystem4pathENS_9allocatorIS3_EEE3endB8ne190000Ev(ptr noundef nonnull align 8 dereferenceable(24) %0) #1 comdat align 2 {
  %2 = alloca %"class.std::__1::__wrap_iter.9", align 8
  %3 = alloca ptr, align 8
  store ptr %0, ptr %3, align 8
  %4 = load ptr, ptr %3, align 8
  %5 = getelementptr inbounds %"class.std::__1::vector", ptr %4, i32 0, i32 1
  %6 = load ptr, ptr %5, align 8
  %7 = call ptr @_ZNKSt3__16vectorIN7mitsuba10filesystem4pathENS_9allocatorIS3_EEE11__make_iterB8ne190000EPKS3_(ptr noundef nonnull align 8 dereferenceable(24) %4, ptr noundef %6) #13
  %8 = getelementptr inbounds %"class.std::__1::__wrap_iter.9", ptr %2, i32 0, i32 0
  store ptr %7, ptr %8, align 8
  %9 = getelementptr inbounds %"class.std::__1::__wrap_iter.9", ptr %2, i32 0, i32 0
  %10 = load ptr, ptr %9, align 8
  ret ptr %10
}

; Function Attrs: mustprogress nounwind uwtable
define linkonce_odr hidden ptr @_ZNKSt3__16vectorIN7mitsuba10filesystem4pathENS_9allocatorIS3_EEE5beginB8ne190000Ev(ptr noundef nonnull align 8 dereferenceable(24) %0) #1 comdat align 2 {
  %2 = alloca %"class.std::__1::__wrap_iter.9", align 8
  %3 = alloca ptr, align 8
  store ptr %0, ptr %3, align 8
  %4 = load ptr, ptr %3, align 8
  %5 = getelementptr inbounds %"class.std::__1::vector", ptr %4, i32 0, i32 0
  %6 = load ptr, ptr %5, align 8
  %7 = call ptr @_ZNKSt3__16vectorIN7mitsuba10filesystem4pathENS_9allocatorIS3_EEE11__make_iterB8ne190000EPKS3_(ptr noundef nonnull align 8 dereferenceable(24) %4, ptr noundef %6) #13
  %8 = getelementptr inbounds %"class.std::__1::__wrap_iter.9", ptr %2, i32 0, i32 0
  store ptr %7, ptr %8, align 8
  %9 = getelementptr inbounds %"class.std::__1::__wrap_iter.9", ptr %2, i32 0, i32 0
  %10 = load ptr, ptr %9, align 8
  ret ptr %10
}

; Function Attrs: mustprogress uwtable
define noundef zeroext i1 @_ZNK7mitsuba12FileResolver8containsERKNS_10filesystem4pathE(ptr noundef nonnull align 8 dereferenceable(40) %0, ptr noundef nonnull align 8 dereferenceable(25) %1) #0 align 2 {
  %3 = alloca ptr, align 8
  %4 = alloca ptr, align 8
  %5 = alloca %"class.std::__1::__wrap_iter.9", align 8
  %6 = alloca %"class.std::__1::__wrap_iter.9", align 8
  %7 = alloca %"class.std::__1::__wrap_iter.9", align 8
  %8 = alloca %"class.std::__1::__wrap_iter.9", align 8
  store ptr %0, ptr %3, align 8
  store ptr %1, ptr %4, align 8
  %9 = load ptr, ptr %3, align 8
  %10 = getelementptr inbounds %"class.mitsuba::FileResolver", ptr %9, i32 0, i32 1
  %11 = call ptr @_ZNKSt3__16vectorIN7mitsuba10filesystem4pathENS_9allocatorIS3_EEE5beginB8ne190000Ev(ptr noundef nonnull align 8 dereferenceable(24) %10) #13
  %12 = getelementptr inbounds %"class.std::__1::__wrap_iter.9", ptr %6, i32 0, i32 0
  store ptr %11, ptr %12, align 8
  %13 = getelementptr inbounds %"class.mitsuba::FileResolver", ptr %9, i32 0, i32 1
  %14 = call ptr @_ZNKSt3__16vectorIN7mitsuba10filesystem4pathENS_9allocatorIS3_EEE3endB8ne190000Ev(ptr noundef nonnull align 8 dereferenceable(24) %13) #13
  %15 = getelementptr inbounds %"class.std::__1::__wrap_iter.9", ptr %7, i32 0, i32 0
  store ptr %14, ptr %15, align 8
  %16 = load ptr, ptr %4, align 8
  %17 = getelementptr inbounds %"class.std::__1::__wrap_iter.9", ptr %6, i32 0, i32 0
  %18 = load ptr, ptr %17, align 8
  %19 = getelementptr inbounds %"class.std::__1::__wrap_iter.9", ptr %7, i32 0, i32 0
  %20 = load ptr, ptr %19, align 8
  %21 = call ptr @_ZNSt3__14findB8ne190000INS_11__wrap_iterIPKN7mitsuba10filesystem4pathEEES4_EET_S8_S8_RKT0_(ptr %18, ptr %20, ptr noundef nonnull align 8 dereferenceable(25) %16)
  %22 = getelementptr inbounds %"class.std::__1::__wrap_iter.9", ptr %5, i32 0, i32 0
  store ptr %21, ptr %22, align 8
  %23 = getelementptr inbounds %"class.mitsuba::FileResolver", ptr %9, i32 0, i32 1
  %24 = call ptr @_ZNKSt3__16vectorIN7mitsuba10filesystem4pathENS_9allocatorIS3_EEE3endB8ne190000Ev(ptr noundef nonnull align 8 dereferenceable(24) %23) #13
  %25 = getelementptr inbounds %"class.std::__1::__wrap_iter.9", ptr %8, i32 0, i32 0
  store ptr %24, ptr %25, align 8
  %26 = call noundef zeroext i1 @_ZNSt3__1neB8ne190000IPKN7mitsuba10filesystem4pathEEEbRKNS_11__wrap_iterIT_EESA_(ptr noundef nonnull align 8 dereferenceable(8) %5, ptr noundef nonnull align 8 dereferenceable(8) %8) #13
  ret i1 %26
}