; Function Attrs: mustprogress uwtable
define noundef zeroext i1 @_ZNK7mitsuba12FileResolver8containsERKNS_10filesystem4pathE(ptr nocapture noundef nonnull readonly align 8 dereferenceable(40) %0, ptr noundef nonnull align 8 dereferenceable(25) %1) local_unnamed_addr #0 align 2 personality ptr @__gxx_personality_v0 {
  %3 = alloca %"struct.std::__1::__identity", align 1
  %4 = getelementptr inbounds i8, ptr %0, i64 16
  %5 = load ptr, ptr %4, align 8
  %6 = getelementptr inbounds i8, ptr %0, i64 24
  %7 = load ptr, ptr %6, align 8
  call void @llvm.lifetime.start.p0(i64 1, ptr nonnull %3)
  %8 = call noundef ptr @_ZNSt3__111__find_implB8ne190000IPKN7mitsuba10filesystem4pathES5_S3_NS_10__identityEEET_S7_T0_RKT1_RT2_(ptr noundef %5, ptr noundef %7, ptr noundef nonnull align 8 dereferenceable(25) %1, ptr noundef nonnull align 1 dereferenceable(1) %3)
  call void @llvm.lifetime.end.p0(i64 1, ptr nonnull %3)
  %9 = load ptr, ptr %6, align 8
  %10 = icmp ne ptr %8, %9
  ret i1 %10
}